VACADEMIA | ecoles enseignement prim sec et sup enseignement de | 24 rue oued baht agdal | RABAT | 0537681160 | 
p0
.VM decin Ophtalmologue Dr Meziane Elotmani Boualam CABINET | medecins qualifies ophtalmologie | 11 bd de la corniche | CASABLANCA | 0522203593 | 0522203591 | 
p0
.VKENDOUSI Mohamed M DECIN | medecins qualifies cardiologie | 4 rue honein agdal | RABAT | 0537672323 | 
p0
.VHOPITAL HOUMMAN EL FATOUAKI BUREAU DU MEDECIN CHEF | hopitaux | hopital hoummane el fatouaki id zekri | TIZNIT | 0528602800 | 
p0
.VDOCTEUR GENERALISTE MESSAOUDI RACHIDA EX MEDECIN MILITAIRE CABINET | medecins generalistes | 16bis rue mohamed el amraoui quartier centre ville | KENITRA | 0537379845 | 
p0
.VDOCTEUR GENERALISTE JIRARI ABDELLATIF MEDECIN DE TRAVAIL CABINET | medecins du sport medecins generalistes medecins quali | 21 avenue oqbah agdal | RABAT | 0537682716 | 
p0
.VDOCTEUR GENERALISTE FASSI FIHRI MOHAMED MOKHTAR MEDECIN DU TRAVAIL CABINET | medecins generalistes medecins qualifies medec du trav | 30 rue said doudi ex rue 10 quartier bir rami est | KENITRA | 0537376718 | 
p0
.VDOCTEUR GENERALISTE EL AMRANI OMARI HASNAE MEDECIN DE TRAVAIL CABINET | medecins generalistes medecins qualifies medec du trav | 9 avenue tarik ibn ziad drissia ii | TANGER | 0539956766 | 
p0
.VDOCTEUR GENERALISTE ECHOGRAPHISTE EL KIRAT ZAHRA MEDECIN DE TRAVAIL CABINET | medecins generalistes | 4 cit habous unite i | MARRAKECH | 0524344121 | 
p0
.VDOCTEUR GENERALISTE CHERKAOUI ABDERRAOUF MALKI MEDECIN EXPERT EN ASSURANCES CABINET | medecins generalistes experts en assurances | 10 r sidence al hamd av hassan ii ocean | RABAT | 0537726948 | 0537733817 | 
p0
.VDOCTEUR GENERALISTE AYOUB SAMIR CABINET MEDECIN DE TRAVAIL | medecins generalistes | avenue maghrib al arabi ocean | RABAT | 0537722058 | 
p0
.VAMCHOU Abdelillah M DECIN | medecins | imm 24 avenue mohammed vi marjane ii | MEKNES | 0535469898 | 
p0
.VPHARMACIE RELAIS DES MEDECINS | pharmacies | r sidence al aambra 4 ryad al andalouss ryad | RABAT | 0537570006 | 0537570106 | 
p0
.VORDRE NATIONAL MEDECINS CROM TT | syndicats | 15 rue ibn haitam administratif | TANGER | 0539322774 | 0539322775 | 
p0
.VORDRE NATIONAL DES MEDECINS CONSEIL REGIONAL DU NORD OUEST | conseil en organisation syndicats | g gle ord nle medecin matougua agdal | RABAT | 0537670288 | 0537672776 | 
p0
.VORDRE NATIONAL DES MEDECINS CONSEIL NATIONAL DE L ORDRE NATIONAL DES MEDECINS | conseil en organisation syndicats | g gle ord nle medecin matougua agdal | RABAT | 0537670274 | 
p0
.VORDRE NATIONAL DES MEDECINS | syndicats | g gle ord nle medecin matougua agdal | RABAT | 0537670585 | 
p0
.VORDRE NATIONAL DES MEDECINS | associations et organisations professionnelles syndicat | rue 2 mars quartier industriel | AGADIR | 0528221445 | 
p0
.VCONSEIL REGIONAL SUD DES MEDECINS DENTISTES | syndicats | 19 rue haj omar riffi mers sultan | CASABLANCA | 0522301201 | 0522314315 | 
p0
.VCONSEIL REGIONAL ORDRE NATIONAL DES MEDECINS REGION DOUKKALA | syndicats | rue docteur roux plateau | EL JADIDA | 0523371907 | 0523374402 | 
p0
.VCONSEIL REGIONAL ORDRE NATIONAL DES MEDECINS | syndicats | avenue med v ville nouvelle | SAFI | 0524464129 | 
p0
.VCONSEIL REGIONAL NORD DES MEDECINS DENTISTES | syndicats | 8 rue moulay rachid hassan | RABAT | 0537722678 | 0537722678 | 
p0
.VCONSEIL REGIONAL DE ORDRE NATIONAL DES MEDECINS G S KHALID MASSAOUDI | syndicats | immeuble salma mjaidri al qods iii | GUELMIM | 0528770176 | 
p0
.VCONSEIL REGIONAL DE L ORDRE DES MEDECINS REGION CENTRE SUD | syndicats | r sidence ibn khaldoune ii ville nouvelle | MEKNES | 0535523604 | 
p0
.VCONSEIL REGIONAL DE L ORDRE DES MEDECINS DU NORD OUEST | associations et organisations professionnelles | rue m touga souissi | RABAT | 0537670484 | 0537670458 | 
p0
.VCONSEIL REGIONAL DE L ORDRE DES MEDECINS DU CENTRE | syndicats | 210 boulevard abdelmoumen derb ghallef | CASABLANCA | 0522252347 | 
p0
.VCONSEIL REGIONAL DE L ORDRE DES MEDECINS DE TENSIFT | syndicats | c5 avenue allal el fassi | MARRAKECH | 0524306712 | 0524310552 | 
p0
.VCONSEIL REGIONAL DE L ORDRE DES MEDECINS CENTRE | associations et organisations professionnelles | immeuble watania av hass ii ville nouvelle | FES | 0535942384 | 0535940505 | 
p0
.VCONSEIL REGIONAL DE L ORDRE DES MEDECINS | medecins syndicats | habitation hopital bnou baja massoudia | TAZA | 0535282921 | 
p0
.VCONSEIL REGIONAL DE L ORDRE DES MEDECINS | associations et organisations professionnelles | agence al omran hay calaboneta | AL HOCEIMA | 0539981610 | 
p0
.VCONSEIL ORDRE NATIONAL DES MEDECINS DE L ORIENTAL | syndicats | 5 rue chefchaouen | OUJDA | 0536687924 | 0536687924 | 
p0
.VCONSEIL NATIONAL DE L ORDRE DES MEDECINS DENTISTES | syndicats | 44 rue aguelmane sidi ali agdal | RABAT | 0537686740 | 0537686740 | 
p0
.VASSOCIATION DES MEDECINS RESIDENTS ARC | associations et organisations professionnelles | rue tarik ibnou ziyad quartier des hopitaux | CASABLANCA | 0522201779 | 
p0
.VASSOCIATION DES MEDECINS DE SANTE | associations et organisations professionnelles | avenue ibn khaldoun | TAZA | 0535282810 | 
p0
.VASSOCIATION DES MEDECINS DE LA REGION LAAYOUNE SAKIA ALHAMRA ADEL | associations et organisations professionnelles | 153 immeuble bighuiden idari | LAAYOUNE | 0528980346 | 
p0
.VAMICALE DES MEDECINS ET PHARMACIENS RASSIL MOKHTAR | associations et organisations professionnelles | 6 rue meknes plateau | EL JADIDA | 0523351067 | 
p0
.VALLO DOCTEUR SOS MEDECINS OASIS URGENCE A DOMICILE AMBULANCE STANDARD | ambulances assistance medicale | 56 rue ishak ibnou hanine quartier maarif extension | CASABLANCA | 0522254848 | 
p0
.VSAAD EL IDRISSI NADIA CENTRE HEMODIALYSE LE FLAMBEAU | medecins qualifies nephrologie | 15 rue saria ibnou zouneim l dav cit plateau | CASABLANCA | 0522233972 | 
p0
.VRIZK SALOUA CABINET | medecins qualifies orthopedie orthoptistes | 4 place moulay hassan hassan | RABAT | 0537709615 | 
p0
.VRAMI MOSTAPHA | medecins generalistes | 32 ouled salem farkhana | NADOR | 0536340005 | 
p0
.VSAAD EL IDRISSI NADIA CENTRE HEMODIALYSE LE FLAMBEAU | medecins qualifies nephrologie | 15 rue saria ibnou zouneim l dav cit plateau | CASABLANCA | 0522233972 | 
p0
.VRIZK SALOUA CABINET | medecins qualifies orthopedie orthoptistes | 4 place moulay hassan hassan | RABAT | 0537709615 | 
p0
.VRAMI MOSTAPHA | medecins generalistes | 32 ouled salem farkhana | NADOR | 0536340005 | 
p0
.VRADIOLOGIE SOCRATE | medecins qualifies radiologie diagn | rue nassih eddine maarif | CASABLANCA | 0522257313 | 0522887906 | 
p0
.VRADIOLOGIE OUED EL MAKHAZINE | medecins qualifies radiologie diagn | 12 rue d alger place oued el makhazine | CASABLANCA | 0522220810 | 0522222656 | 
p0
.VRADIOLOGIE HAY HASSANI DOCTEURS RADIOLOGUE ALAMI OUAFAA ET FARIS NADIA ST | medecins qualifies radiologie diagn radiologie | immeuble communal derb amal | CASABLANCA | 0522900707 | 0522901010 | 
p0
.VRADIOLOGIE BERRADA DOCTEUR BERRADA RACHID | medecins qualifies radiologie diagn radiologie | 7 rue khadir rhillane ville nouvelle | SAFI | 0524630879 | 
p0
.VRADIOLOGIE BERRADA DOCTEUR BERRADA RACHID | medecins qualifies radiologie diagn radiologie | 7 rue khadir rhillane ville nouvelle | SAFI | 0524630776 | 
p0
.VRADIOLOGIE ANOUAL | medecins qualifies radiologie diagn radiologie | 111 boulevard anoual quartier des hopitaux | CASABLANCA | 0522860569 | 0522860999 | 
p0
.VRADIOLOGIE AL MOUAHIDINE DOCTEUR RADIOLOGUE MOUSS MALIKA STANDARD | medecins qualifies radiologie diagn cliniques radiolo | lotissement mouahidine r sidence mouahidine | CASABLANCA | 0522341536 | 0522341537 | 
p0
.VPROFESSEUR KHAIROUNI ABDESLAM | medecins qualifies chr pediatrique | 34 rue charam cheikh les palmiers | CASABLANCA | 0522255056 | 0522255044 | 
p0
.VPOLYCLINIQUE ROMANDIE CENTRE CARDIOLOGUE CASA ANFA | medecins qualifies cardiologie cliniques | 19 boulevard ibnou sina quartier hippodrome | CASABLANCA | 0522943933 | 0522943022 | 
p0
.VPOLYCLINIQUE DU SUD | medecins qualifies chirurgie gener cliniques | rue yougozlavie gueliz | MARRAKECH | 0524447999 | 0524421487 | 
p0
.VPOLYCLINIQUE DU GHARB AZIZI ALAOUI MOHAMED STANDARD | medecins qualifies chirurgie gener medecins qualifies | 148 avenue mohamed diouri | KENITRA | 0537376565 | 
p0
.VPOLYCLINIQUE ATLAS STANDARD | medecins qualifies gynecologie obst cliniques | route sefrou atlas | FES | 0535640123 | 0535640124 | 
p0
.VPOLYCLINIQUE ATLAS STANDARD | medecins qualifies gynecologie obst cliniques | polyclinique atlas atlas | FES | 0535641697 | 0535657460 | 
p0
.VPOLYCLINIQUE ATLAS | medecins qualifies gynecologie obst cliniques | route sefrou atlas | FES | 0535657969 | 
p0
.VPHARMACIE POPULAIRE DOCTEUR EL MARSAOUI CHAFIQ | medecins generalistes pharmacies | 1429 lotissement moukaouama iv moukaouama | KHOURIBGA | 0523411080 | 
p0
.VOUZIT Souad CABINET | medecins qualifies diabetologie dieteticiens | 373 boulevard souhaib erroumi mansour 3 | CASABLANCA | 0522737272 | 
p0
.VOURYEMCHI ABDELKRIM | medecins generalistes | 18 lotissement laalaj al moustaqbal | OUJDA | 0536503709 | 
p0
.VOURADI ABDELLAH CABINET SOS SOIN | medecins qualifies anesthesie reani | 2 rue 612 derb mbarek bouargane | AGADIR | 0528214303 | 
p0
.VOUEZZANI LEILA | medecins qualifies nephrologie | 601 lotissement manzeh el manzeh | RABAT | 0537791992 | 0537796363 | 
p0
.VOUCHAM NADIA | medecins qualifies dermat venereolo | rue youssef ibn tachfine al mahatta | OUJDA | 0536681314 | 
p0
.VOUBAZOUZ ABDELLAH | medecins qualifies chirurgie gener | 33 rue la gare souk el arb a centre ville | KENITRA | 0537902385 | 
p0
.VOUAZZANI HASSANI LATIFA | medecins qualifies chirurgie gener | 29 avenue moulay hassan 1er quartier centre | CASABLANCA | 0522271102 | 
p0
.VOUAMMOU ABDELLAH | medecins qualifies neurochirurgie | r sidence tarfaya hassan | RABAT | 0537705992 | 
p0
.VOUALDOU MOHAMMED AMINE CABINET | medecins generalistes | 161 quartier pam bp 1224 | SIDI SLIMANE | 0537314247 | 
p0
.VOUAKIL SARA CABINET | medecins qualifies medec thermale masseurs kinesither | 199 boulevard bir anzarane quartier maarif extension | CASABLANCA | 0522235593 | 
p0
.VOUAHABI HAMID | medecins qualifies neurologie | 61 rue oukaimden agdal | RABAT | 0537680701 | 
p0
.VOPHTALMOLOGUE SALMA BERRADA CABINET | medecins qualifies ophtalmologie | route principale de bouskoura centre bouskoura | CASABLANCA | 0522590526 | 
p0
.VOUAKIL SARA CABINET | medecins qualifies medec thermale masseurs kinesither | 199 boulevard bir anzarane quartier maarif extension | CASABLANCA | 0522235593 | 
p0
.VOUAHABI HAMID | medecins qualifies neurologie | 61 rue oukaimden agdal | RABAT | 0537680701 | 
p0
.VOPHTALMOLOGUE SALMA BERRADA CABINET | medecins qualifies ophtalmologie | route principale de bouskoura centre bouskoura | CASABLANCA | 0522590526 | 
p0
.VOPHTALMOLOGUE MARIAM EL HAMIDI | medecins qualifies ophtalmologie | 170 lotissement saada 4 m hamid | MARRAKECH | 0524370370 | 
p0
.VOPHTALMO CLINIQUE AL MADINA DOCTEUR OPHTALMOLOGISTE ZAFAD RACHID ZAFAD LAHCEN | medecins qualifies ophtalmologie cliniques | rue mohamed bahi ex c laurin cit plateau | CASABLANCA | 0522777740 | 0522777745 | 
p0
.VOPHTALMI S A | medecins qualifies ophtalmologie | rue tayeb labssir agdal | RABAT | 0537680787 | 0537680788 | 
p0
.VNIANE FATIMA ZOHRA | medecins qualifies gynecologie medi | 35 avenue 2 mars quartier mers sultan nord | CASABLANCA | 0522265235 | 0522293973 | 
p0
.VNEJJAR OUSSAMA | medecins qualifies allergologie medecins qualifies pneu | 2 rue sidi bouhaja rmel | SALE | 0537785827 | 0537844820 | 
p0
.VNASSLAHSEN HAKIMA | medecins qualifies psychiatrie | imb 5 boulevard hassan ii masrour i | SKHIRAT TEMARA | 0537611972 | 
p0
.VNASRI NAJIA | medecins generalistes | 4 rue 58 hay tarik | CASABLANCA | 0522752275 | 
p0
.VNASREDDINE | medecins qualifies stomatologie | lotissement amane lotissement amane | CASABLANCA | 0522743073 | 
p0
.VLEMBARRA SAMIR | medecins qualifies pediatrie | 5 boulevard abderrahman serghini | MOHAMMEDIA | 0523300852 | 
p0
.VLAHLOU YASSINE | medecins generalistes homeopathie | residence rabie immeuble ariha nahda 1 | RABAT | 0537657968 | 
p0
.VLACHACHI MOHAMMED ABDELKAFI DOMICILE | medecins qualifies ophtalmologie | 22 rue zerhoune derb chraibi rte d immouzer | FES | 0535605661 | 0535611716 | 
p0
.VLABORATOIRE POLYBIO BENFARES LEILA | medecins qualifies anatomie cytolog laboratoires d anal | 7 rue oued souss agdal | RABAT | 0537771505 | 0537778344 | 
p0
.VLABORATOIRE LABOMAC | medecins qualifies biologie medicale laboratoires d ana | 40 rue prince moulay abdellah | CASABLANCA | 0522207422 | 0522268303 | 
p0
.VLABORATOIRE FARABI DOCTEUR BIOLOGISTE TAOUFIK BENCHEKROUN AICHA | medecins qualifies biologie medicale laboratoires d ana | avenue alger hassan | RABAT | 0537732675 | 
p0
.VLABORATOIRE DU MAGHREB LIGNE INTERNET | medecins qualifies biologie medicale laboratoires d ana | 5 rue hossein 1er hassan | RABAT | 0537261127 | 0537729258 | 
p0
.VLABORATOIRE DE PATHOLOGIE IBN SINA | medecins qualifies anatomie cytolog laboratoires d anal | 400 boulevard brahim roudani maarif | CASABLANCA | 0522230876 | 0522230876 | 
p0
.VLABORATOIRE D ANATOMIE PATHOLOGIQUE BOUZOUBAA DOCTEUR BOUZOUBAA ABDELILAH | medecins qualifies anatomie cytolog laboratoires d anat | 32 rue zerktouni centre ville | TANGER | 0539341580 | 
p0
.VLABORATOIRE D ANATOMIE CHKOFF DOCTEUR CHKOFF LATIFA | medecins qualifies anatomie cytolog medecins qualifies | rue oued ziz agdal | RABAT | 0537772463 | 
p0
.VLABORATOIRE D ANALYSES MEDICALES MEDILAB EL GHISSASSI ASSIA | medecins qualifies anatomie cytolog medecins qualifies | r sidence menzeh hassan | RABAT | 0537703930 | 
p0
.VLABORATOIRE D ANALYSES MEDICALES ET SOINS MEDICALS AMRI ZAHRI MOHAMED ALI | medecins qualifies biologie medicale laboratoires d ana | 132 boulevard 11 janvier quartier libert | CASABLANCA | 0522318643 | 0522319199 | 
p0
.VLABORATOIRE D ANALYSES MEDICALES BIOCLAS | medecins qualifies biologie medicale laboratoires d ana | 2 angle boulevard abdelmoumen et rue soumaya maarif | CASABLANCA | 0522256937 | 0522256937 | 
p0
.VLABORATOIRE D ANALYSES MEDICALES LE CADUCEE FELLAHI MOHAMED TAOUFIK | medecins qualifies biologie medicale laboratoires d ana | 95 avenue mohamed v hay karima i | SALE | 0537866871 | 
p0
.VLABORATOIRE D ANALYSES BENHASSAIN KARIM LIGNE DIRECTE | medecins qualifies biologie medicale laboratoires d ana | 4 rue tihama hassan | RABAT | 0537707285 | 
p0
.VLABORATOIRE ANALYSES BIOLOGIQUES ET DE RECHERCHES DOCTEUR BIOLOGISTE BENHASSAIN KARIM | medecins qualifies biologie medicale laboratoires d ana | 4 rue tihama hassan | RABAT | 0537708082 | 
p0
.VLABORATOIRE AL MASSIRA DOCTEUR BIOLOGISTE GUESSOUS KHALID STANDARD | medecins qualifies biologie medicale laboratoires d ana | 994 cit amal 5 massira | RABAT | 0537793222 | 
p0
.VLABORATOIRE AL MASSIRA DOCTEUR BIOLOGISTE GUESSOUS KHALID | medecins qualifies biologie medicale laboratoires d ana | 994 avenue des far industriel | RABAT | 0537795868 | 
p0
.VLABO MEDICAL ABBAR MUSTAPHA | medecins qualifies anatomie cytolog laboratoires d anal | immeuble ben chadli av hassan kalaa | EL JADIDA | 0523350040 | 
p0
.